target datalayout = "e-m:e-p270:32:32-p271:32:32-p272:64:64-i64:64-i128:128-f80:128-n8:16:32:64-S128"
target triple = "x86_64-pc-linux-gnu"

%struct.jpeg_decompress_struct = type { ptr, ptr, ptr, ptr, i32, i32, ptr, i32, i32, i32, i32, i32, i32, i32, double, i32, i32, i32, i32, i32, i32, i32, i32, i32, i32, i32, i32, i32, i32, i32, i32, i32, i32, ptr, i32, i32, i32, i32, i32, ptr, [4 x ptr], [4 x ptr], [4 x ptr], i32, ptr, i32, i32, [16 x i8], [16 x i8], [16 x i8], i32, i32, i8, i8, i8, i16, i16, i32, i8, i32, ptr, i32, i32, i32, i32, ptr, i32, [4 x ptr], i32, i32, i32, [10 x i32], i32, i32, i32, i32, i32, ptr, ptr, ptr, ptr, ptr, ptr, ptr, ptr, ptr, ptr, ptr }
%struct.jpeg_memory_mgr = type { ptr, ptr, ptr, ptr, ptr, ptr, ptr, ptr, ptr, ptr, ptr, i64, i64 }
%struct.jpeg_source_mgr = type { ptr, i64, ptr, ptr, ptr, ptr, ptr }
%struct.jpeg_error_mgr = type { ptr, ptr, ptr, ptr, ptr, i32, %union.anon, i32, i64, ptr, i32, ptr, i32, i32 }
%union.anon = type { [8 x i32], [48 x i8] }

; Function Attrs: nounwind uwtable
define void @jpeg_mem_src(ptr noundef %0, ptr noundef %1, i64 noundef %2) #0 {
  %4 = alloca ptr, align 8
  %5 = alloca ptr, align 8
  %6 = alloca i64, align 8
  %7 = alloca ptr, align 8
  store ptr %0, ptr %4, align 8, !tbaa !3
  store ptr %1, ptr %5, align 8, !tbaa !65
  store i64 %2, ptr %6, align 8, !tbaa !56
  call void @llvm.lifetime.start.p0(i64 8, ptr %7) #3
  %8 = load ptr, ptr %5, align 8, !tbaa !65
  %9 = icmp eq ptr %8, null
  br i1 %9, label %13, label %10

10:                                               ; preds = %3
  %11 = load i64, ptr %6, align 8, !tbaa !56
  %12 = icmp eq i64 %11, 0
  br i1 %12, label %13, label %24

13:                                               ; preds = %10, %3
  %14 = load ptr, ptr %4, align 8, !tbaa !3
  %15 = getelementptr inbounds nuw %struct.jpeg_decompress_struct, ptr %14, i32 0, i32 0
  %16 = load ptr, ptr %15, align 8, !tbaa !43
  %17 = getelementptr inbounds nuw %struct.jpeg_error_mgr, ptr %16, i32 0, i32 5
  store i32 42, ptr %17, align 8, !tbaa !44
  %18 = load ptr, ptr %4, align 8, !tbaa !3
  %19 = getelementptr inbounds nuw %struct.jpeg_decompress_struct, ptr %18, i32 0, i32 0
  %20 = load ptr, ptr %19, align 8, !tbaa !43
  %21 = getelementptr inbounds nuw %struct.jpeg_error_mgr, ptr %20, i32 0, i32 0
  %22 = load ptr, ptr %21, align 8, !tbaa !46
  %23 = load ptr, ptr %4, align 8, !tbaa !3
  call void %22(ptr noundef %23)
  br label %24

24:                                               ; preds = %13, %10
  %25 = load ptr, ptr %4, align 8, !tbaa !3
  %26 = getelementptr inbounds nuw %struct.jpeg_decompress_struct, ptr %25, i32 0, i32 6
  %27 = load ptr, ptr %26, align 8, !tbaa !10
  %28 = icmp eq ptr %27, null
  br i1 %28, label %29, label %39

29:                                               ; preds = %24
  %30 = load ptr, ptr %4, align 8, !tbaa !3
  %31 = getelementptr inbounds nuw %struct.jpeg_decompress_struct, ptr %30, i32 0, i32 1
  %32 = load ptr, ptr %31, align 8, !tbaa !34
  %33 = getelementptr inbounds nuw %struct.jpeg_memory_mgr, ptr %32, i32 0, i32 0
  %34 = load ptr, ptr %33, align 8, !tbaa !35
  %35 = load ptr, ptr %4, align 8, !tbaa !3
  %36 = call ptr %34(ptr noundef %35, i32 noundef 0, i64 noundef 56)
  %37 = load ptr, ptr %4, align 8, !tbaa !3
  %38 = getelementptr inbounds nuw %struct.jpeg_decompress_struct, ptr %37, i32 0, i32 6
  store ptr %36, ptr %38, align 8, !tbaa !10
  br label %58

39:                                               ; preds = %24
  %40 = load ptr, ptr %4, align 8, !tbaa !3
  %41 = getelementptr inbounds nuw %struct.jpeg_decompress_struct, ptr %40, i32 0, i32 6
  %42 = load ptr, ptr %41, align 8, !tbaa !10
  %43 = getelementptr inbounds nuw %struct.jpeg_source_mgr, ptr %42, i32 0, i32 2
  %44 = load ptr, ptr %43, align 8, !tbaa !42
  %45 = icmp ne ptr %44, @init_mem_source
  br i1 %45, label %46, label %57

46:                                               ; preds = %39
  %47 = load ptr, ptr %4, align 8, !tbaa !3
  %48 = getelementptr inbounds nuw %struct.jpeg_decompress_struct, ptr %47, i32 0, i32 0
  %49 = load ptr, ptr %48, align 8, !tbaa !43
  %50 = getelementptr inbounds nuw %struct.jpeg_error_mgr, ptr %49, i32 0, i32 5
  store i32 23, ptr %50, align 8, !tbaa !44
  %51 = load ptr, ptr %4, align 8, !tbaa !3
  %52 = getelementptr inbounds nuw %struct.jpeg_decompress_struct, ptr %51, i32 0, i32 0
  %53 = load ptr, ptr %52, align 8, !tbaa !43
  %54 = getelementptr inbounds nuw %struct.jpeg_error_mgr, ptr %53, i32 0, i32 0
  %55 = load ptr, ptr %54, align 8, !tbaa !46
  %56 = load ptr, ptr %4, align 8, !tbaa !3
  call void %55(ptr noundef %56)
  br label %57

57:                                               ; preds = %46, %39
  br label %58

58:                                               ; preds = %57, %29
  %59 = load ptr, ptr %4, align 8, !tbaa !3
  %60 = getelementptr inbounds nuw %struct.jpeg_decompress_struct, ptr %59, i32 0, i32 6
  %61 = load ptr, ptr %60, align 8, !tbaa !10
  store ptr %61, ptr %7, align 8, !tbaa !59
  %62 = load ptr, ptr %7, align 8, !tbaa !59
  %63 = getelementptr inbounds nuw %struct.jpeg_source_mgr, ptr %62, i32 0, i32 2
  store ptr @init_mem_source, ptr %63, align 8, !tbaa !42
  %64 = load ptr, ptr %7, align 8, !tbaa !59
  %65 = getelementptr inbounds nuw %struct.jpeg_source_mgr, ptr %64, i32 0, i32 3
  store ptr @fill_mem_input_buffer, ptr %65, align 8, !tbaa !61
  %66 = load ptr, ptr %7, align 8, !tbaa !59
  %67 = getelementptr inbounds nuw %struct.jpeg_source_mgr, ptr %66, i32 0, i32 4
  store ptr @skip_input_data, ptr %67, align 8, !tbaa !66
  %68 = load ptr, ptr %7, align 8, !tbaa !59
  %69 = getelementptr inbounds nuw %struct.jpeg_source_mgr, ptr %68, i32 0, i32 5
  store ptr @jpeg_resync_to_restart, ptr %69, align 8, !tbaa !67
  %70 = load ptr, ptr %7, align 8, !tbaa !59
  %71 = getelementptr inbounds nuw %struct.jpeg_source_mgr, ptr %70, i32 0, i32 6
  store ptr @term_source, ptr %71, align 8, !tbaa !68
  %72 = load i64, ptr %6, align 8, !tbaa !56
  %73 = load ptr, ptr %7, align 8, !tbaa !59
  %74 = getelementptr inbounds nuw %struct.jpeg_source_mgr, ptr %73, i32 0, i32 1
  store i64 %72, ptr %74, align 8, !tbaa !60
  %75 = load ptr, ptr %5, align 8, !tbaa !65
  %76 = load ptr, ptr %7, align 8, !tbaa !59
  %77 = getelementptr inbounds nuw %struct.jpeg_source_mgr, ptr %76, i32 0, i32 0
  store ptr %75, ptr %77, align 8, !tbaa !64
  call void @llvm.lifetime.end.p0(i64 8, ptr %7) #3
  ret void
}