; Function Attrs: nounwind uwtable
define void @jpeg_mem_src(ptr noundef %0, ptr noundef %1, i64 noundef %2) local_unnamed_addr #0 {
  %4 = icmp eq ptr %1, null
  %5 = icmp eq i64 %2, 0
  %or.cond = or i1 %4, %5
  br i1 %or.cond, label %6, label %10

6:                                                ; preds = %3
  %7 = load ptr, ptr %0, align 8, !tbaa !39
  %8 = getelementptr inbounds nuw i8, ptr %7, i64 40
  store i32 42, ptr %8, align 8, !tbaa !40
  %9 = load ptr, ptr %7, align 8, !tbaa !42
  tail call void %9(ptr noundef nonnull %0) #6
  br label %10

10:                                               ; preds = %3, %6
  %11 = getelementptr inbounds nuw i8, ptr %0, i64 40
  %12 = load ptr, ptr %11, align 8, !tbaa !3
  %13 = icmp eq ptr %12, null
  br i1 %13, label %14, label %19

14:                                               ; preds = %10
  %15 = getelementptr inbounds nuw i8, ptr %0, i64 8
  %16 = load ptr, ptr %15, align 8, !tbaa !30
  %17 = load ptr, ptr %16, align 8, !tbaa !31
  %18 = tail call ptr %17(ptr noundef nonnull %0, i32 noundef 0, i64 noundef 56) #6
  store ptr %18, ptr %11, align 8, !tbaa !3
  br label %26

19:                                               ; preds = %10
  %20 = getelementptr inbounds nuw i8, ptr %12, i64 16
  %21 = load ptr, ptr %20, align 8, !tbaa !38
  %.not = icmp eq ptr %21, @init_mem_source
  br i1 %.not, label %26, label %22

22:                                               ; preds = %19
  %23 = load ptr, ptr %0, align 8, !tbaa !39
  %24 = getelementptr inbounds nuw i8, ptr %23, i64 40
  store i32 23, ptr %24, align 8, !tbaa !40
  %25 = load ptr, ptr %23, align 8, !tbaa !42
  tail call void %25(ptr noundef nonnull %0) #6
  %.pre = load ptr, ptr %11, align 8, !tbaa !3
  br label %26

26:                                               ; preds = %19, %22, %14
  %27 = phi ptr [ %12, %19 ], [ %.pre, %22 ], [ %18, %14 ]
  %28 = getelementptr inbounds nuw i8, ptr %27, i64 16
  store ptr @init_mem_source, ptr %28, align 8, !tbaa !38
  %29 = getelementptr inbounds nuw i8, ptr %27, i64 24
  store ptr @fill_mem_input_buffer, ptr %29, align 8, !tbaa !55
  %30 = getelementptr inbounds nuw i8, ptr %27, i64 32
  store ptr @skip_input_data, ptr %30, align 8, !tbaa !59
  %31 = getelementptr inbounds nuw i8, ptr %27, i64 40
  store ptr @jpeg_resync_to_restart, ptr %31, align 8, !tbaa !60
  %32 = getelementptr inbounds nuw i8, ptr %27, i64 48
  store ptr @term_source, ptr %32, align 8, !tbaa !61
  %33 = getelementptr inbounds nuw i8, ptr %27, i64 8
  store i64 %2, ptr %33, align 8, !tbaa !54
  store ptr %1, ptr %27, align 8, !tbaa !58
  ret void
}